target datalayout = "e-m:e-p270:32:32-p271:32:32-p272:64:64-i64:64-i128:128-f80:128-n8:16:32:64-S128"
target triple = "x86_64-pc-linux-gnu"

%struct.ForEachState = type { ptr, i32 }
%union.ListCell = type { ptr }
%struct.QualCost = type { double, double }
%struct.List = type { i32, i32, i32, ptr, [0 x %union.ListCell] }
%struct.EquivalenceClass = type { i32, ptr, i32, ptr, ptr, ptr, ptr, i8, i8, i8, i32, i32, i32, ptr }
%struct.EquivalenceMember = type { i32, ptr, ptr, i8, i8, i32, ptr, ptr }
%struct.RelOptInfo = type { i32, i32, ptr, double, i8, i8, i8, ptr, ptr, ptr, ptr, ptr, ptr, ptr, ptr, ptr, ptr, i32, i32, i32, i16, i16, ptr, ptr, ptr, ptr, ptr, ptr, ptr, ptr, i32, double, double, ptr, ptr, ptr, i32, i32, i32, i32, i8, ptr, ptr, ptr, ptr, ptr, %struct.QualCost, i32, ptr, i8, i8, ptr, ptr, ptr, ptr, i32, ptr, i8, ptr, ptr, ptr, ptr, ptr, ptr }

; Function Attrs: inlinehint nounwind uwtable
define internal i32 @list_length(ptr noundef %0) #2 {
  %2 = alloca ptr, align 8
  store ptr %0, ptr %2, align 8
  %3 = load ptr, ptr %2, align 8
  %4 = icmp ne ptr %3, null
  br i1 %4, label %5, label %9

5:                                                ; preds = %1
  %6 = load ptr, ptr %2, align 8
  %7 = getelementptr inbounds nuw %struct.List, ptr %6, i32 0, i32 1
  %8 = load i32, ptr %7, align 4
  br label %10

9:                                                ; preds = %1
  br label %10

10:                                               ; preds = %9, %5
  %11 = phi i32 [ %8, %5 ], [ 0, %9 ]
  ret i32 %11
}

; Function Attrs: nounwind uwtable
define dso_local zeroext i1 @eclass_useful_for_merging(ptr noundef %0, ptr noundef %1, ptr noundef %2) #0 {
  %4 = alloca i1, align 1
  %5 = alloca ptr, align 8
  %6 = alloca ptr, align 8
  %7 = alloca ptr, align 8
  %8 = alloca ptr, align 8
  %9 = alloca ptr, align 8
  %10 = alloca i32, align 4
  %11 = alloca %struct.ForEachState, align 8
  %12 = alloca ptr, align 8
  store ptr %0, ptr %5, align 8
  store ptr %1, ptr %6, align 8
  store ptr %2, ptr %7, align 8
  call void @llvm.lifetime.start.p0(i64 8, ptr %8) #6
  call void @llvm.lifetime.start.p0(i64 8, ptr %9) #6
  %13 = load ptr, ptr %6, align 8
  %14 = getelementptr inbounds nuw %struct.EquivalenceClass, ptr %13, i32 0, i32 7
  %15 = load i8, ptr %14, align 8, !range !4, !noundef !5
  %16 = trunc i8 %15 to i1
  br i1 %16, label %23, label %17

17:                                               ; preds = %3
  %18 = load ptr, ptr %6, align 8
  %19 = getelementptr inbounds nuw %struct.EquivalenceClass, ptr %18, i32 0, i32 3
  %20 = load ptr, ptr %19, align 8
  %21 = call i32 @list_length(ptr noundef %20)
  %22 = icmp sle i32 %21, 1
  br i1 %22, label %23, label %24

23:                                               ; preds = %17, %3
  store i1 false, ptr %4, align 1
  store i32 1, ptr %10, align 4
  br label %113

24:                                               ; preds = %17
  %25 = load ptr, ptr %7, align 8
  %26 = getelementptr inbounds nuw %struct.RelOptInfo, ptr %25, i32 0, i32 1
  %27 = load i32, ptr %26, align 4
  %28 = icmp eq i32 %27, 2
  br i1 %28, label %39, label %29

29:                                               ; preds = %24
  %30 = load ptr, ptr %7, align 8
  %31 = getelementptr inbounds nuw %struct.RelOptInfo, ptr %30, i32 0, i32 1
  %32 = load i32, ptr %31, align 4
  %33 = icmp eq i32 %32, 3
  br i1 %33, label %39, label %34

34:                                               ; preds = %29
  %35 = load ptr, ptr %7, align 8
  %36 = getelementptr inbounds nuw %struct.RelOptInfo, ptr %35, i32 0, i32 1
  %37 = load i32, ptr %36, align 4
  %38 = icmp eq i32 %37, 5
  br i1 %38, label %39, label %43

39:                                               ; preds = %34, %29, %24
  %40 = load ptr, ptr %7, align 8
  %41 = getelementptr inbounds nuw %struct.RelOptInfo, ptr %40, i32 0, i32 53
  %42 = load ptr, ptr %41, align 8
  store ptr %42, ptr %8, align 8
  br label %47

43:                                               ; preds = %34
  %44 = load ptr, ptr %7, align 8
  %45 = getelementptr inbounds nuw %struct.RelOptInfo, ptr %44, i32 0, i32 2
  %46 = load ptr, ptr %45, align 8
  store ptr %46, ptr %8, align 8
  br label %47

47:                                               ; preds = %43, %39
  %48 = load ptr, ptr %6, align 8
  %49 = getelementptr inbounds nuw %struct.EquivalenceClass, ptr %48, i32 0, i32 6
  %50 = load ptr, ptr %49, align 8
  %51 = load ptr, ptr %8, align 8
  %52 = call zeroext i1 @bms_is_subset(ptr noundef %50, ptr noundef %51)
  br i1 %52, label %53, label %54

53:                                               ; preds = %47
  store i1 false, ptr %4, align 1
  store i32 1, ptr %10, align 4
  br label %113

54:                                               ; preds = %47
  call void @llvm.lifetime.start.p0(i64 16, ptr %11) #6
  %55 = getelementptr inbounds nuw %struct.ForEachState, ptr %11, i32 0, i32 0
  %56 = load ptr, ptr %6, align 8
  %57 = getelementptr inbounds nuw %struct.EquivalenceClass, ptr %56, i32 0, i32 3
  %58 = load ptr, ptr %57, align 8
  store ptr %58, ptr %55, align 8
  %59 = getelementptr inbounds nuw %struct.ForEachState, ptr %11, i32 0, i32 1
  store i32 0, ptr %59, align 8
  %60 = getelementptr i8, ptr %11, i64 12
  call void @llvm.memset.p0.i64(ptr align 4 %60, i8 0, i64 4, i1 false)
  br label %61

61:                                               ; preds = %106, %54
  %62 = getelementptr inbounds nuw %struct.ForEachState, ptr %11, i32 0, i32 0
  %63 = load ptr, ptr %62, align 8
  %64 = icmp ne ptr %63, null
  br i1 %64, label %65, label %82

65:                                               ; preds = %61
  %66 = getelementptr inbounds nuw %struct.ForEachState, ptr %11, i32 0, i32 1
  %67 = load i32, ptr %66, align 8
  %68 = getelementptr inbounds nuw %struct.ForEachState, ptr %11, i32 0, i32 0
  %69 = load ptr, ptr %68, align 8
  %70 = getelementptr inbounds nuw %struct.List, ptr %69, i32 0, i32 1
  %71 = load i32, ptr %70, align 4
  %72 = icmp slt i32 %67, %71
  br i1 %72, label %73, label %82

73:                                               ; preds = %65
  %74 = getelementptr inbounds nuw %struct.ForEachState, ptr %11, i32 0, i32 0
  %75 = load ptr, ptr %74, align 8
  %76 = getelementptr inbounds nuw %struct.List, ptr %75, i32 0, i32 3
  %77 = load ptr, ptr %76, align 8
  %78 = getelementptr inbounds nuw %struct.ForEachState, ptr %11, i32 0, i32 1
  %79 = load i32, ptr %78, align 8
  %80 = sext i32 %79 to i64
  %81 = getelementptr inbounds %union.ListCell, ptr %77, i64 %80
  store ptr %81, ptr %9, align 8
  br label %83

82:                                               ; preds = %65, %61
  store ptr null, ptr %9, align 8
  br label %83

83:                                               ; preds = %82, %73
  %84 = phi i32 [ 1, %73 ], [ 0, %82 ]
  %85 = icmp ne i32 %84, 0
  br i1 %85, label %87, label %86

86:                                               ; preds = %83
  store i32 2, ptr %10, align 4
  br label %110

87:                                               ; preds = %83
  call void @llvm.lifetime.start.p0(i64 8, ptr %12) #6
  %88 = load ptr, ptr %9, align 8
  %89 = load ptr, ptr %88, align 8
  store ptr %89, ptr %12, align 8
  %90 = load ptr, ptr %12, align 8
  %91 = getelementptr inbounds nuw %struct.EquivalenceMember, ptr %90, i32 0, i32 4
  %92 = load i8, ptr %91, align 1, !range !4, !noundef !5
  %93 = trunc i8 %92 to i1
  br i1 %93, label %94, label %95

94:                                               ; preds = %87
  store i32 4, ptr %10, align 4
  br label %103

95:                                               ; preds = %87
  %96 = load ptr, ptr %12, align 8
  %97 = getelementptr inbounds nuw %struct.EquivalenceMember, ptr %96, i32 0, i32 2
  %98 = load ptr, ptr %97, align 8
  %99 = load ptr, ptr %8, align 8
  %100 = call zeroext i1 @bms_overlap(ptr noundef %98, ptr noundef %99)
  br i1 %100, label %102, label %101

101:                                              ; preds = %95
  store i1 true, ptr %4, align 1
  store i32 1, ptr %10, align 4
  br label %103

102:                                              ; preds = %95
  store i32 0, ptr %10, align 4
  br label %103

103:                                              ; preds = %102, %101, %94
  call void @llvm.lifetime.end.p0(i64 8, ptr %12) #6
  %104 = load i32, ptr %10, align 4
  switch i32 %104, label %110 [
    i32 0, label %105
    i32 4, label %106
  ]

105:                                              ; preds = %103
  br label %106

106:                                              ; preds = %105, %103
  %107 = getelementptr inbounds nuw %struct.ForEachState, ptr %11, i32 0, i32 1
  %108 = load i32, ptr %107, align 8
  %109 = add i32 %108, 1
  store i32 %109, ptr %107, align 8
  br label %61, !llvm.loop !67

110:                                              ; preds = %103, %86
  call void @llvm.lifetime.end.p0(i64 16, ptr %11) #6
  %111 = load i32, ptr %10, align 4
  switch i32 %111, label %113 [
    i32 2, label %112
  ]

112:                                              ; preds = %110
  store i1 false, ptr %4, align 1
  store i32 1, ptr %10, align 4
  br label %113

113:                                              ; preds = %112, %110, %53, %23
  call void @llvm.lifetime.end.p0(i64 8, ptr %9) #6
  call void @llvm.lifetime.end.p0(i64 8, ptr %8) #6
  %114 = load i1, ptr %4, align 1
  ret i1 %114
}