; Function Attrs: nounwind uwtable
define dso_local noundef zeroext i1 @eclass_useful_for_merging(ptr noundef readnone captures(none) %0, ptr noundef readonly captures(none) %1, ptr noundef readonly captures(none) %2) local_unnamed_addr #0 {
  %4 = getelementptr inbounds nuw i8, ptr %1, i64 56
  %5 = load i8, ptr %4, align 8, !range !4, !noundef !5
  %6 = trunc nuw i8 %5 to i1
  br i1 %6, label %list_length.exit.thread, label %7

7:                                                ; preds = %3
  %8 = getelementptr inbounds nuw i8, ptr %1, i64 24
  %9 = load ptr, ptr %8, align 8
  %.not.i = icmp eq ptr %9, null
  br i1 %.not.i, label %list_length.exit.thread, label %list_length.exit

list_length.exit:                                 ; preds = %7
  %10 = getelementptr inbounds nuw i8, ptr %9, i64 4
  %11 = load i32, ptr %10, align 4
  %12 = icmp slt i32 %11, 2
  br i1 %12, label %list_length.exit.thread, label %13

13:                                               ; preds = %list_length.exit
  %14 = getelementptr inbounds nuw i8, ptr %2, i64 4
  %15 = load i32, ptr %14, align 4
  %switch.tableidx = add i32 %15, -2
  %16 = icmp ult i32 %switch.tableidx, 4
  br i1 %16, label %switch.lookup, label %18

switch.lookup:                                    ; preds = %13
  %17 = zext nneg i32 %switch.tableidx to i64
  %switch.gep = getelementptr inbounds nuw [4 x i64], ptr @switch.table.eclass_useful_for_merging, i64 0, i64 %17
  %switch.load = load i64, ptr %switch.gep, align 8
  br label %18

18:                                               ; preds = %13, %switch.lookup
  %.sink = phi i64 [ %switch.load, %switch.lookup ], [ 8, %13 ]
  %19 = getelementptr inbounds nuw i8, ptr %2, i64 %.sink
  %.020 = load ptr, ptr %19, align 8
  %20 = getelementptr inbounds nuw i8, ptr %1, i64 48
  %21 = load ptr, ptr %20, align 8
  %22 = tail call zeroext i1 @bms_is_subset(ptr noundef %21, ptr noundef %.020) #8
  br i1 %22, label %list_length.exit.thread, label %23

23:                                               ; preds = %18
  %24 = load ptr, ptr %8, align 8
  %25 = getelementptr inbounds nuw i8, ptr %24, i64 4
  %.not = icmp eq ptr %24, null
  br i1 %.not, label %list_length.exit.thread, label %.lr.ph

.lr.ph:                                           ; preds = %23
  %26 = getelementptr inbounds nuw i8, ptr %24, i64 16
  %27 = load i32, ptr %25, align 4
  %28 = icmp sgt i32 %27, 0
  br i1 %28, label %.lr.ph43, label %list_length.exit.thread

.lr.ph43:                                         ; preds = %.lr.ph, %select.unfold
  %29 = phi i32 [ %40, %select.unfold ], [ %27, %.lr.ph ]
  %indvars.iv = phi i64 [ %indvars.iv.next, %select.unfold ], [ 0, %.lr.ph ]
  %30 = load ptr, ptr %26, align 8
  %31 = getelementptr inbounds nuw %union.ListCell, ptr %30, i64 %indvars.iv
  %32 = load ptr, ptr %31, align 8
  %33 = getelementptr inbounds nuw i8, ptr %32, i64 25
  %34 = load i8, ptr %33, align 1, !range !4, !noundef !5
  %35 = trunc nuw i8 %34 to i1
  br i1 %35, label %select.unfold, label %36

36:                                               ; preds = %.lr.ph43
  %37 = getelementptr inbounds nuw i8, ptr %32, i64 16
  %38 = load ptr, ptr %37, align 8
  %39 = tail call zeroext i1 @bms_overlap(ptr noundef %38, ptr noundef %.020) #8
  br i1 %39, label %.select.unfold_crit_edge, label %list_length.exit.thread

.select.unfold_crit_edge:                         ; preds = %36
  %.pre = load i32, ptr %25, align 4
  br label %select.unfold

select.unfold:                                    ; preds = %.select.unfold_crit_edge, %.lr.ph43
  %40 = phi i32 [ %.pre, %.select.unfold_crit_edge ], [ %29, %.lr.ph43 ]
  %indvars.iv.next = add nuw nsw i64 %indvars.iv, 1
  %41 = sext i32 %40 to i64
  %42 = icmp slt i64 %indvars.iv.next, %41
  br i1 %42, label %.lr.ph43, label %list_length.exit.thread

list_length.exit.thread:                          ; preds = %select.unfold, %36, %23, %.lr.ph, %7, %18, %3, %list_length.exit
  %.0 = phi i1 [ false, %list_length.exit ], [ false, %3 ], [ false, %18 ], [ false, %7 ], [ false, %23 ], [ false, %.lr.ph ], [ false, %select.unfold ], [ true, %36 ]
  ret i1 %.0
}